ccopy_reg
_reconstructor
p1
(cBox2D.Box2D
b2World
p2
c__builtin__
object
p3
NtRp4
(dp5
S'worldAABB'
p6
g1
(cBox2D.Box2D
b2AABB
p7
g3
NtRp8
(dp9
S'lowerBound'
p10
g1
(cBox2D.Box2D
b2Vec2
p11
g3
NtRp12
(dp13
S'y'
F-100
sS'x'
F-200
sbsS'upperBound'
p14
g1
(g11
g3
NtRp15
(dp16
S'y'
F200
sS'x'
F200
sbsbsS'bodyList'
p17
(lp18
g1
(cBox2D.Box2D
b2Body
p19
g3
NtRp20
(dp21
S'isBullet'
p22
I00
sS'massData'
p23
g1
(cBox2D.Box2D
b2MassData
p24
g3
NtRp25
(dp26
S'I'
F0
sS'mass'
p27
F0
sS'center'
p28
g1
(g11
g3
NtRp29
(dp30
S'y'
F0
sS'x'
F0
sbsbsS'angle'
p31
F0
sS'fixedRotation'
p32
I00
sS'linearDamping'
p33
F0
sS'userData'
p34
NsS'allowSleep'
p35
I01
sS'angularVelocity'
p36
F0
sS'shapeList'
p37
(lp38
g1
(cBox2D.Box2D
b2PolygonShape
p39
g3
NtRp40
(dp41
g34
NsS'density'
p42
F0
sS'vertices'
p43
(lp44
(F-50
F-10
tp45
a(F50
F-10
tp46
a(F50
F10
tp47
a(F-50
F10
tp48
asS'friction'
p49
F0.20000000298023224
sS'filter'
p50
g1
(cBox2D.Box2D
b2FilterData
p51
g3
NtRp52
(dp53
S'maskBits'
p54
I65535
sS'groupIndex'
p55
I0
sS'categoryBits'
p56
I1
sbsS'restitution'
p57
F0
sbasS'isSleeping'
p58
I00
sS'angularDamping'
p59
F0
sS'position'
p60
g1
(g11
g3
NtRp61
(dp62
S'y'
F-10
sS'x'
F0
sbsS'linearVelocity'
p63
g1
(g11
g3
NtRp64
(dp65
S'y'
F0
sS'x'
F0
sbsbag1
(g19
g3
NtRp66
(dp67
g22
I00
sg23
g1
(g24
g3
NtRp68
(dp69
S'I'
F0.83333337306976318
sg27
F5
sg28
g1
(g11
g3
NtRp70
(dp71
S'y'
F0
sS'x'
F0
sbsbsg31
F0.31557610630989075
sg32
I00
sg33
F0
sg34
Nsg35
I01
sg36
F0.093625977635383606
sg37
(lp72
g1
(g39
g3
NtRp73
(dp74
g34
Nsg42
F5
sg43
(lp75
(F-0.5
F-0.5
tp76
a(F0.5
F-0.5
tp77
a(F0.5
F0.5
tp78
a(F-0.5
F0.5
tp79
asg49
F0.20000000298023224
sg50
g1
(g51
g3
NtRp80
(dp81
g54
I65535
sg55
I0
sg56
I1
sbsg57
F0
sbasg58
I00
sg59
F0
sg60
g1
(g11
g3
NtRp82
(dp83
S'y'
F0.7608184814453125
sS'x'
F-1.0106199979782104
sbsg63
g1
(g11
g3
NtRp84
(dp85
S'y'
F-0.21579849720001221
sS'x'
F0.1135454922914505
sbsbag1
(g19
g3
NtRp86
(dp87
g22
I00
sg23
g1
(g24
g3
NtRp88
(dp89
S'I'
F0.83333337306976318
sg27
F5
sg28
g1
(g11
g3
NtRp90
(dp91
S'y'
F0
sS'x'
F0
sbsbsg31
F-0.44056594371795654
sg32
I00
sg33
F0
sg34
Nsg35
I01
sg36
F0.87406623363494873
sg37
(lp92
g1
(g39
g3
NtRp93
(dp94
g34
Nsg42
F5
sg43
(lp95
(F-0.5
F-0.5
tp96
a(F0.5
F-0.5
tp97
a(F0.5
F0.5
tp98
a(F-0.5
F0.5
tp99
asg49
F0.20000000298023224
sg50
g1
(g51
g3
NtRp100
(dp101
g54
I65535
sg55
I0
sg56
I1
sbsg57
F0
sbasg58
I00
sg59
F0
sg60
g1
(g11
g3
NtRp102
(dp103
S'y'
F6.3416409492492676
sS'x'
F6.8607616424560547
sbsg63
g1
(g11
g3
NtRp104
(dp105
S'y'
F0.31362298130989075
sS'x'
F0.25473472476005554
sbsbag1
(g19
g3
NtRp106
(dp107
g22
I00
sg23
g1
(g24
g3
NtRp108
(dp109
S'I'
F0.83333337306976318
sg27
F5
sg28
g1
(g11
g3
NtRp110
(dp111
S'y'
F0
sS'x'
F0
sbsbsg31
F0.058882668614387512
sg32
I00
sg33
F0
sg34
Nsg35
I01
sg36
F-1.2870484590530396
sg37
(lp112
g1
(g39
g3
NtRp113
(dp114
g34
Nsg42
F5
sg43
(lp115
(F-0.5
F-0.5
tp116
a(F0.5
F-0.5
tp117
a(F0.5
F0.5
tp118
a(F-0.5
F0.5
tp119
asg49
F0.20000000298023224
sg50
g1
(g51
g3
NtRp120
(dp121
g54
I65535
sg55
I0
sg56
I1
sbsg57
F0
sbasg58
I00
sg59
F0
sg60
g1
(g11
g3
NtRp122
(dp123
S'y'
F15.851221084594727
sS'x'
F4.0714559555053711
sbsg63
g1
(g11
g3
NtRp124
(dp125
S'y'
F0.27899095416069031
sS'x'
F-0.61484462022781372
sbsbag1
(g19
g3
NtRp126
(dp127
g22
I00
sg23
g1
(g24
g3
NtRp128
(dp129
S'I'
F0.83333337306976318
sg27
F5
sg28
g1
(g11
g3
NtRp130
(dp131
S'y'
F0
sS'x'
F0
sbsbsg31
F-0.1416914165019989
sg32
I00
sg33
F0
sg34
Nsg35
I01
sg36
F-1.2951349020004272
sg37
(lp132
g1
(g39
g3
NtRp133
(dp134
g34
Nsg42
F5
sg43
(lp135
(F-0.5
F-0.5
tp136
a(F0.5
F-0.5
tp137
a(F0.5
F0.5
tp138
a(F-0.5
F0.5
tp139
asg49
F0.20000000298023224
sg50
g1
(g51
g3
NtRp140
(dp141
g54
I65535
sg55
I0
sg56
I1
sbsg57
F0
sbasg58
I00
sg59
F0
sg60
g1
(g11
g3
NtRp142
(dp143
S'y'
F12.5001220703125
sS'x'
F-5.6435585021972656
sbsg63
g1
(g11
g3
NtRp144
(dp145
S'y'
F0.38009059429168701
sS'x'
F0.10340719670057297
sbsbasS'gravity'
p146
g1
(g11
g3
NtRp147
(dp148
S'y'
F-10
sS'x'
F0
sbsS'controllerList'
p149
(lp150
sS'doSleep'
p151
I01
sS'jointList'
p152
(lp153
(dp154
g34
NsS'_type'
p155
S'Distance'
p156
sS'frequencyHz'
p157
F4
sS'localAnchor1'
p158
g1
(g11
g3
NtRp159
(dp160
S'y'
F10
sS'x'
F-10
sbsS'localAnchor2'
p161
g1
(g11
g3
NtRp162
(dp163
S'y'
F-0.5
sS'x'
F-0.5
sbsS'collideConnected'
p164
I00
sS'length'
p165
F6.3639612197875977
sS'dampingRatio'
p166
F0.5
sS'body1'
p167
I1
sS'body2'
p168
I2
sa(dp169
g34
Nsg155
g156
sg157
F4
sg158
g1
(g11
g3
NtRp170
(dp171
S'y'
F10
sS'x'
F10
sbsg161
g1
(g11
g3
NtRp172
(dp173
S'y'
F-0.5
sS'x'
F0.5
sbsg164
I00
sg165
F6.3639612197875977
sg166
F0.5
sg167
I1
sg168
I3
sa(dp174
g34
Nsg155
g156
sg157
F4
sg158
g1
(g11
g3
NtRp175
(dp176
S'y'
F30
sS'x'
F10
sbsg161
g1
(g11
g3
NtRp177
(dp178
S'y'
F0.5
sS'x'
F0.5
sbsg164
I00
sg165
F6.3639612197875977
sg166
F0.5
sg167
I1
sg168
I4
sa(dp179
g34
Nsg155
g156
sg157
F4
sg158
g1
(g11
g3
NtRp180
(dp181
S'y'
F30
sS'x'
F-10
sbsg161
g1
(g11
g3
NtRp182
(dp183
S'y'
F0.5
sS'x'
F-0.5
sbsg164
I00
sg165
F6.3639612197875977
sg166
F0.5
sg167
I1
sg168
I5
sa(dp184
g34
Nsg155
g156
sg157
F4
sg158
g1
(g11
g3
NtRp185
(dp186
S'y'
F0
sS'x'
F0.5
sbsg161
g1
(g11
g3
NtRp187
(dp188
S'y'
F0
sS'x'
F-0.5
sbsg164
I00
sg165
F9
sg166
F0.5
sg167
I2
sg168
I3
sa(dp189
g34
Nsg155
g156
sg157
F4
sg158
g1
(g11
g3
NtRp190
(dp191
S'y'
F0.5
sS'x'
F0
sbsg161
g1
(g11
g3
NtRp192
(dp193
S'y'
F-0.5
sS'x'
F0
sbsg164
I00
sg165
F9
sg166
F0.5
sg167
I3
sg168
I4
sa(dp194
g34
Nsg155
g156
sg157
F4
sg158
g1
(g11
g3
NtRp195
(dp196
S'y'
F0
sS'x'
F-0.5
sbsg161
g1
(g11
g3
NtRp197
(dp198
S'y'
F0
sS'x'
F0.5
sbsg164
I00
sg165
F9
sg166
F0.5
sg167
I4
sg168
I5
sa(dp199
g34
Nsg155
g156
sg157
F4
sg158
g1
(g11
g3
NtRp200
(dp201
S'y'
F-0.5
sS'x'
F0
sbsg161
g1
(g11
g3
NtRp202
(dp203
S'y'
F0.5
sS'x'
F0
sbsg164
I00
sg165
F9
sg166
F0.5
sg167
I5
sg168
I2
sasS'groundBody'
p204
g1
(g19
g3
NtRp205
(dp206
g22
I00
sg23
g1
(g24
g3
NtRp207
(dp208
S'I'
F0
sg27
F0
sg28
g1
(g11
g3
NtRp209
(dp210
S'y'
F0
sS'x'
F0
sbsbsg31
F0
sg32
I00
sg33
F0
sg34
Nsg35
I01
sg36
F0
sg37
(lp211
sg58
I00
sg59
F0
sg60
g1
(g11
g3
NtRp212
(dp213
S'y'
F0
sS'x'
F0
sbsg63
g1
(g11
g3
NtRp214
(dp215
S'y'
F0
sS'x'
F0
sbsbsb.